; Function Attrs: mustprogress uwtable
define void @_ZN4lean8get_nameERKNS_8list_refINS_8pair_refINS_4nameENS_10data_valueEEEEERKS2_(ptr dead_on_unwind noalias writable writeonly sret(%"class.lean::optional.6") align 8 captures(none) %0, ptr noundef nonnull readonly align 8 captures(none) dereferenceable(8) %1, ptr noundef nonnull readonly align 8 captures(none) dereferenceable(8) %2) local_unnamed_addr #0 personality ptr @__gxx_personality_v0 {
  %4 = alloca %"class.lean::optional", align 8
  %5 = alloca %"class.lean::list_ref", align 8
  call void @llvm.lifetime.start.p0(i64 16, ptr nonnull %4) #6
  %6 = load ptr, ptr %1, align 8, !tbaa !3
  store ptr %6, ptr %5, align 8, !tbaa !3
  %7 = ptrtoint ptr %6 to i64
  %8 = and i64 %7, 1
  %.not.i.i.i = icmp eq i64 %8, 0
  br i1 %.not.i.i.i, label %9, label %_ZN4lean8list_refINS_8pair_refINS_4nameENS_10data_valueEEEEC2ERKS5_.exit

9:                                                ; preds = %3
  %.val.i.i.i.i = load i32, ptr %6, align 4, !tbaa !8
  %10 = icmp sgt i32 %.val.i.i.i.i, 0
  br i1 %10, label %11, label %13, !prof !11

11:                                               ; preds = %9
  %12 = add nuw nsw i32 %.val.i.i.i.i, 1
  store i32 %12, ptr %6, align 4, !tbaa !8
  br label %_ZN4lean8list_refINS_8pair_refINS_4nameENS_10data_valueEEEEC2ERKS5_.exit

13:                                               ; preds = %9
  %.not.i.i.i.i = icmp eq i32 %.val.i.i.i.i, 0
  br i1 %.not.i.i.i.i, label %_ZN4lean8list_refINS_8pair_refINS_4nameENS_10data_valueEEEEC2ERKS5_.exit, label %14

14:                                               ; preds = %13
  tail call void @lean_inc_ref_cold(ptr noundef nonnull %6)
  br label %_ZN4lean8list_refINS_8pair_refINS_4nameENS_10data_valueEEEEC2ERKS5_.exit

_ZN4lean8list_refINS_8pair_refINS_4nameENS_10data_valueEEEEC2ERKS5_.exit: ; preds = %3, %11, %13, %14
  invoke void @_ZN4lean4findENS_8list_refINS_8pair_refINS_4nameENS_10data_valueEEEEERKS2_(ptr dead_on_unwind nonnull writable sret(%"class.lean::optional") align 8 %4, ptr noundef nonnull %5, ptr noundef nonnull align 8 dereferenceable(8) %2)
          to label %15 unwind label %48

15:                                               ; preds = %_ZN4lean8list_refINS_8pair_refINS_4nameENS_10data_valueEEEEC2ERKS5_.exit
  %16 = load ptr, ptr %5, align 8, !tbaa !3
  %17 = ptrtoint ptr %16 to i64
  %18 = and i64 %17, 1
  %.not.i.i = icmp eq i64 %18, 0
  br i1 %.not.i.i, label %19, label %_ZN4lean10object_refD2Ev.exit

19:                                               ; preds = %15
  %20 = load i32, ptr %16, align 4, !tbaa !8
  %21 = icmp sgt i32 %20, 1
  br i1 %21, label %22, label %24, !prof !11

22:                                               ; preds = %19
  %23 = add nsw i32 %20, -1
  store i32 %23, ptr %16, align 4, !tbaa !8
  br label %_ZN4lean10object_refD2Ev.exit

24:                                               ; preds = %19
  %.not.i.i.i5 = icmp eq i32 %20, 0
  br i1 %.not.i.i.i5, label %_ZN4lean10object_refD2Ev.exit, label %25

25:                                               ; preds = %24
  invoke void @lean_dec_ref_cold(ptr noundef nonnull %16)
          to label %_ZN4lean10object_refD2Ev.exit unwind label %26

26:                                               ; preds = %25
  %27 = landingpad { ptr, i32 }
          catch ptr null
  %28 = extractvalue { ptr, i32 } %27, 0
  tail call void @__clang_call_terminate(ptr %28) #7
  unreachable

_ZN4lean10object_refD2Ev.exit:                    ; preds = %15, %22, %24, %25
  %29 = load i8, ptr %4, align 8, !tbaa !13, !range !18, !noundef !19
  %30 = trunc nuw i8 %29 to i1
  br i1 %30, label %31, label %_ZN4lean8optionalINS_4nameEEC2ERKS1_.exit

31:                                               ; preds = %_ZN4lean10object_refD2Ev.exit
  %32 = getelementptr inbounds nuw i8, ptr %4, i64 8
  %33 = load ptr, ptr %32, align 8, !tbaa !3
  %34 = getelementptr i8, ptr %33, i64 4
  %.val.i.i = load i32, ptr %34, align 4
  %.mask = and i32 %.val.i.i, -16777216
  %35 = icmp eq i32 %.mask, 33554432
  br i1 %35, label %36, label %_ZN4lean8optionalINS_4nameEEC2ERKS1_.exit.thread9

_ZN4lean8optionalINS_4nameEEC2ERKS1_.exit.thread9: ; preds = %31
  store i8 0, ptr %0, align 8, !tbaa !27
  br label %_ZN4lean8optionalINS_4nameEEC2ERKS1_.exit.thread

36:                                               ; preds = %31
  %37 = getelementptr inbounds nuw i8, ptr %33, i64 8
  store i8 1, ptr %0, align 8, !tbaa !27
  %38 = getelementptr inbounds nuw i8, ptr %0, i64 8
  %39 = load ptr, ptr %37, align 8, !tbaa !3
  store ptr %39, ptr %38, align 8, !tbaa !3
  %40 = ptrtoint ptr %39 to i64
  %41 = and i64 %40, 1
  %.not.i.i.i.i6 = icmp eq i64 %41, 0
  br i1 %.not.i.i.i.i6, label %42, label %_ZN4lean8optionalINS_4nameEEC2ERKS1_.exit.thread

42:                                               ; preds = %36
  %.val.i.i.i.i.i = load i32, ptr %39, align 4, !tbaa !8
  %43 = icmp sgt i32 %.val.i.i.i.i.i, 0
  br i1 %43, label %44, label %46, !prof !11

44:                                               ; preds = %42
  %45 = add nuw nsw i32 %.val.i.i.i.i.i, 1
  store i32 %45, ptr %39, align 4, !tbaa !8
  br label %_ZN4lean8optionalINS_4nameEEC2ERKS1_.exit.thread

46:                                               ; preds = %42
  %.not.i.i.i.i.i = icmp eq i32 %.val.i.i.i.i.i, 0
  br i1 %.not.i.i.i.i.i, label %_ZN4lean8optionalINS_4nameEEC2ERKS1_.exit.thread, label %47

47:                                               ; preds = %46
  invoke void @lean_inc_ref_cold(ptr noundef nonnull %39)
          to label %_ZN4lean8optionalINS_4nameEEC2ERKS1_.exit.thread unwind label %50

48:                                               ; preds = %_ZN4lean8list_refINS_8pair_refINS_4nameENS_10data_valueEEEEC2ERKS5_.exit
  %49 = landingpad { ptr, i32 }
          cleanup
  call void @_ZN4lean10object_refD2Ev(ptr noundef nonnull align 8 dereferenceable(8) %5) #6
  br label %66

50:                                               ; preds = %47
  %51 = landingpad { ptr, i32 }
          cleanup
  call void @_ZN4lean8optionalINS_10data_valueEED2Ev(ptr noundef nonnull align 8 dereferenceable(16) %4) #6
  br label %66

_ZN4lean8optionalINS_4nameEEC2ERKS1_.exit:        ; preds = %_ZN4lean10object_refD2Ev.exit
  store i8 0, ptr %0, align 8, !tbaa !27
  br label %_ZN4lean8optionalINS_10data_valueEED2Ev.exit

_ZN4lean8optionalINS_4nameEEC2ERKS1_.exit.thread: ; preds = %47, %36, %44, %46, %_ZN4lean8optionalINS_4nameEEC2ERKS1_.exit.thread9
  %52 = getelementptr inbounds nuw i8, ptr %4, i64 8
  %53 = load ptr, ptr %52, align 8, !tbaa !3
  %54 = ptrtoint ptr %53 to i64
  %55 = and i64 %54, 1
  %.not.i.i.i7 = icmp eq i64 %55, 0
  br i1 %.not.i.i.i7, label %56, label %_ZN4lean8optionalINS_10data_valueEED2Ev.exit

56:                                               ; preds = %_ZN4lean8optionalINS_4nameEEC2ERKS1_.exit.thread
  %57 = load i32, ptr %53, align 4, !tbaa !8
  %58 = icmp sgt i32 %57, 1
  br i1 %58, label %59, label %61, !prof !11

59:                                               ; preds = %56
  %60 = add nsw i32 %57, -1
  store i32 %60, ptr %53, align 4, !tbaa !8
  br label %_ZN4lean8optionalINS_10data_valueEED2Ev.exit

61:                                               ; preds = %56
  %.not.i.i.i.i8 = icmp eq i32 %57, 0
  br i1 %.not.i.i.i.i8, label %_ZN4lean8optionalINS_10data_valueEED2Ev.exit, label %62

62:                                               ; preds = %61
  invoke void @lean_dec_ref_cold(ptr noundef nonnull %53)
          to label %_ZN4lean8optionalINS_10data_valueEED2Ev.exit unwind label %63

63:                                               ; preds = %62
  %64 = landingpad { ptr, i32 }
          catch ptr null
  %65 = extractvalue { ptr, i32 } %64, 0
  tail call void @__clang_call_terminate(ptr %65) #7
  unreachable

_ZN4lean8optionalINS_10data_valueEED2Ev.exit:     ; preds = %_ZN4lean8optionalINS_4nameEEC2ERKS1_.exit, %_ZN4lean8optionalINS_4nameEEC2ERKS1_.exit.thread, %59, %61, %62
  call void @llvm.lifetime.end.p0(i64 16, ptr nonnull %4) #6
  ret void

66:                                               ; preds = %50, %48
  %.pn = phi { ptr, i32 } [ %51, %50 ], [ %49, %48 ]
  call void @llvm.lifetime.end.p0(i64 16, ptr nonnull %4) #6
  resume { ptr, i32 } %.pn
}